; ModuleID = 'source-C-CXX/51/5244.c'
source_filename = "source-C-CXX/51/5244.c"
target datalayout = "e-m:e-p270:32:32-p271:32:32-p272:64:64-i64:64-f80:128-n8:16:32:64-S128"
target triple = "x86_64-pc-linux-gnu"

@.str = private unnamed_addr constant [5 x i8] c"%d%d\00", align 1
@.str.1 = private unnamed_addr constant [3 x i8] c"%d\00", align 1

; Function Attrs: nofree nounwind sspstrong uwtable
define dso_local i32 @main() local_unnamed_addr #0 {
  %1 = alloca i32, align 4
  %2 = alloca i32, align 4
  %3 = bitcast i32* %1 to i8*
  call void @llvm.lifetime.start.p0i8(i64 4, i8* nonnull %3) #5
  %4 = bitcast i32* %2 to i8*
  call void @llvm.lifetime.start.p0i8(i64 4, i8* nonnull %4) #5
  %5 = call i32 (i8*, ...) @__isoc99_scanf(i8* getelementptr inbounds ([5 x i8], [5 x i8]* @.str, i64 0, i64 0), i32* nonnull %1, i32* nonnull %2)
  %6 = load i32, i32* %1, align 4, !tbaa !5
  %7 = sext i32 %6 to i64
  %8 = shl nsw i64 %7, 2
  %9 = call noalias align 16 i8* @malloc(i64 %8) #5
  %10 = bitcast i8* %9 to i32*
  %11 = call noalias align 16 i8* @malloc(i64 %8) #5
  %12 = bitcast i8* %11 to i32*
  %13 = icmp sgt i32 %6, 0
  br i1 %13, label %14, label %24

14:                                               ; preds = %0, %14
  %15 = phi i64 [ %18, %14 ], [ 0, %0 ]
  %16 = getelementptr inbounds i32, i32* %10, i64 %15
  %17 = call i32 (i8*, ...) @__isoc99_scanf(i8* getelementptr inbounds ([3 x i8], [3 x i8]* @.str.1, i64 0, i64 0), i32* %16)
  %18 = add nuw nsw i64 %15, 1
  %19 = getelementptr inbounds i32, i32* %12, i64 %15
  %20 = trunc i64 %18 to i32
  store i32 %20, i32* %19, align 4, !tbaa !5
  %21 = load i32, i32* %1, align 4, !tbaa !5
  %22 = sext i32 %21 to i64
  %23 = icmp slt i64 %18, %22
  br i1 %23, label %14, label %24, !llvm.loop !9

24:                                               ; preds = %14, %0
  %25 = phi i32 [ %6, %0 ], [ %21, %14 ]
  %26 = add nsw i32 %25, -1
  %27 = sext i32 %26 to i64
  %28 = getelementptr inbounds i32, i32* %12, i64 %27
  store i32 0, i32* %28, align 4, !tbaa !5
  %29 = load i32, i32* %2, align 4, !tbaa !5
  %30 = xor i32 %29, -1
  %31 = add i32 %25, %30
  %32 = sext i32 %31 to i64
  %33 = getelementptr inbounds i32, i32* %12, i64 %32
  store i32 %25, i32* %33, align 4, !tbaa !5
  %34 = sub nsw i32 %25, %29
  %35 = sext i32 %34 to i64
  %36 = getelementptr inbounds i32, i32* %10, i64 %35
  %37 = load i32, i32* %36, align 4, !tbaa !5
  %38 = call i32 (i8*, ...) @printf(i8* nonnull dereferenceable(1) getelementptr inbounds ([3 x i8], [3 x i8]* @.str.1, i64 0, i64 0), i32 %37)
  %39 = getelementptr inbounds i32, i32* %12, i64 %35
  %40 = load i32, i32* %39, align 4, !tbaa !5
  %41 = load i32, i32* %1, align 4, !tbaa !5
  %42 = icmp eq i32 %40, %41
  br i1 %42, label %54, label %43

43:                                               ; preds = %24, %43
  %44 = phi i32 [ %51, %43 ], [ %40, %24 ]
  %45 = call i32 @putchar(i32 32)
  %46 = sext i32 %44 to i64
  %47 = getelementptr inbounds i32, i32* %10, i64 %46
  %48 = load i32, i32* %47, align 4, !tbaa !5
  %49 = call i32 (i8*, ...) @printf(i8* nonnull dereferenceable(1) getelementptr inbounds ([3 x i8], [3 x i8]* @.str.1, i64 0, i64 0), i32 %48)
  %50 = getelementptr inbounds i32, i32* %12, i64 %46
  %51 = load i32, i32* %50, align 4, !tbaa !5
  %52 = load i32, i32* %1, align 4, !tbaa !5
  %53 = icmp eq i32 %51, %52
  br i1 %53, label %54, label %43

54:                                               ; preds = %43, %24
  call void @llvm.lifetime.end.p0i8(i64 4, i8* nonnull %4) #5
  call void @llvm.lifetime.end.p0i8(i64 4, i8* nonnull %3) #5
  ret i32 0
}

; Function Attrs: argmemonly mustprogress nofree nosync nounwind willreturn
declare void @llvm.lifetime.start.p0i8(i64 immarg, i8* nocapture) #1

; Function Attrs: nofree nounwind
declare noundef i32 @__isoc99_scanf(i8* nocapture noundef readonly, ...) local_unnamed_addr #2

; Function Attrs: inaccessiblememonly mustprogress nofree nounwind willreturn
declare noalias noundef align 16 i8* @malloc(i64 noundef) local_unnamed_addr #3

; Function Attrs: nofree nounwind
declare noundef i32 @printf(i8* nocapture noundef readonly, ...) local_unnamed_addr #2

; Function Attrs: argmemonly mustprogress nofree nosync nounwind willreturn
declare void @llvm.lifetime.end.p0i8(i64 immarg, i8* nocapture) #1

; Function Attrs: nofree nounwind
declare noundef i32 @putchar(i32 noundef) local_unnamed_addr #4


!llvm.module.flags = !{!0, !1, !2, !3}
!llvm.ident = !{!4}

!0 = !{i32 1, !"wchar_size", i32 4}
!1 = !{i32 7, !"PIC Level", i32 2}
!2 = !{i32 7, !"PIE Level", i32 2}
!3 = !{i32 7, !"uwtable", i32 1}
!4 = !{!"clang version 13.0.0"}
!5 = !{!6, !6, i64 0}
!6 = !{!"int", !7, i64 0}
!7 = !{!"omnipotent char", !8, i64 0}
!8 = !{!"Simple C/C++ TBAA"}
!9 = distinct !{!9, !10}
!10 = !{!"llvm.loop.mustprogress"}
